; Function Attrs: mustprogress uwtable
define noundef nonnull align 8 dereferenceable(64) ptr @_ZNK6icu_7519FilteredNormalizer29normalizeERKNS_13UnicodeStringERS1_R10UErrorCode(ptr nocapture noundef nonnull readonly align 8 dereferenceable(24) %this, ptr noundef nonnull align 8 dereferenceable(64) %src, ptr noundef nonnull returned align 8 dereferenceable(64) %dest, ptr noundef nonnull align 4 dereferenceable(4) %errorCode) unnamed_addr #2 align 2 {
entry:
  %0 = load i32, ptr %errorCode, align 4
  %cmp.i.i = icmp sgt i32 %0, 0
  br i1 %cmp.i.i, label %if.then, label %land.lhs.true.i

land.lhs.true.i:                                  ; preds = %entry
  %fUnion.i.i = getelementptr inbounds i8, ptr %src, i64 8
  %1 = load i16, ptr %fUnion.i.i, align 8
  %conv2.i2.i = and i16 %1, 1
  %tobool2.not.i = icmp eq i16 %conv2.i2.i, 0
  br i1 %tobool2.not.i, label %if.end, label %if.then.i

if.then.i:                                        ; preds = %land.lhs.true.i
  store i32 1, ptr %errorCode, align 4
  br label %if.then

if.then:                                          ; preds = %entry, %if.then.i
  tail call void @_ZN6icu_7513UnicodeString10setToBogusEv(ptr noundef nonnull align 8 dereferenceable(64) %dest)
  br label %return

if.end:                                           ; preds = %land.lhs.true.i
  %cmp = icmp eq ptr %dest, %src
  br i1 %cmp, label %if.then2, label %if.end3

if.then2:                                         ; preds = %if.end
  store i32 1, ptr %errorCode, align 4
  br label %return

if.end3:                                          ; preds = %if.end
  %fUnion.i.i11 = getelementptr inbounds i8, ptr %dest, i64 8
  %2 = load i16, ptr %fUnion.i.i11, align 8
  %conv2.i3.i = and i16 %2, 1
  %tobool.not.i = icmp eq i16 %conv2.i3.i, 0
  %3 = and i16 %2, 30
  %storemerge.i = select i1 %tobool.not.i, i16 %3, i16 2
  store i16 %storemerge.i, ptr %fUnion.i.i11, align 8
  %call5 = tail call noundef nonnull align 8 dereferenceable(64) ptr @_ZNK6icu_7519FilteredNormalizer29normalizeERKNS_13UnicodeStringERS1_17USetSpanConditionR10UErrorCode(ptr noundef nonnull align 8 dereferenceable(24) %this, ptr noundef nonnull align 8 dereferenceable(64) %src, ptr noundef nonnull align 8 dereferenceable(64) %dest, i32 noundef 2, ptr noundef nonnull align 4 dereferenceable(4) %errorCode)
  br label %return

return:                                           ; preds = %if.end3, %if.then2, %if.then
  ret ptr %dest
}